Certificate:
    Data:
        Version: 3 (0x2)
        Serial Number: 1 (0x1)
    Signature Algorithm: sha256WithRSAEncryption
        Issuer: C=CN, ST=Beijing, L=Beijing, O=Wocloud, OU=R&D, CN=Test CA/emailAddress=test@example.com
        Validity
            Not Before: Mar  1 02:51:03 2021 GMT
            Not After : Nov 26 02:51:03 2023 GMT
        Subject: C=CN, ST=Beijing, L=Beijing, O=Wocloud, CN=yigfs.test.com
        Subject Public Key Info:
            Public Key Algorithm: rsaEncryption
                Public-Key: (2048 bit)
                Modulus:
                    00:d7:40:6b:18:76:b7:f2:e0:a6:b4:f2:df:8b:15:
                    27:74:7e:65:66:40:54:8b:52:17:2d:80:9f:52:a3:
                    af:6e:e0:22:bb:19:44:e9:d3:de:5f:cb:84:53:87:
                    8b:fe:2d:27:b6:e0:74:a4:5a:75:ee:e5:34:7a:96:
                    3c:43:76:f3:19:b1:10:14:f2:87:b5:63:d6:cc:e7:
                    69:ae:78:c6:c5:90:9a:0d:de:9d:00:a1:08:47:20:
                    eb:7c:58:37:35:bd:de:f1:3c:8a:a4:d9:55:b7:16:
                    62:12:4e:a7:bb:45:9d:2b:c0:01:93:4a:6b:ac:4a:
                    fb:11:a3:ca:ad:5e:24:a7:08:63:97:3f:12:0a:ba:
                    d5:37:e8:ce:6b:c9:f6:36:22:7a:05:45:c8:38:e9:
                    d8:5c:83:f1:5b:df:e7:ee:29:1e:0f:2a:14:5a:f0:
                    31:00:2e:26:a7:32:0f:39:d5:98:e0:63:1b:3d:cc:
                    d2:40:b7:d6:dc:08:c6:4f:3a:72:bf:14:a0:bb:3c:
                    cc:a2:c9:71:47:cd:f6:30:ce:0d:f7:76:80:cd:3a:
                    f3:27:f0:c6:29:bf:56:d8:41:2b:7f:16:27:79:7a:
                    df:23:55:20:cb:5f:ff:76:09:ef:8b:4d:5a:2e:91:
                    a1:1e:ad:38:cf:c9:b4:d3:73:15:b6:8e:3e:f5:21:
                    30:f3
                Exponent: 65537 (0x10001)
        X509v3 extensions:
            X509v3 Subject Key Identifier: 
                D6:32:F8:27:43:2F:35:54:1F:DB:4C:51:E5:7B:DA:AA:2B:70:03:A4
            X509v3 Authority Key Identifier: 
                keyid:5F:3C:83:48:2C:DE:DE:2A:A2:9D:AE:EF:8B:F8:7F:C5:8F:06:95:F4

            X509v3 Basic Constraints: 
                CA:FALSE
            X509v3 Key Usage: 
                Digital Signature, Key Encipherment
            X509v3 Subject Alternative Name: 
                DNS:yigfs.test.com, DNS:localhost, DNS:127.0.0.1, IP Address:127.0.0.1
            Netscape Comment: 
                OpenSSL Generated Certificate
    Signature Algorithm: sha256WithRSAEncryption
         24:b2:d5:a7:3a:9e:a1:e8:94:d7:99:d0:29:dc:8f:b8:7f:1b:
         4a:39:c7:04:e7:05:71:87:5b:69:36:04:5e:3b:72:bb:25:3d:
         76:4d:f2:d1:88:eb:ac:55:db:e6:4c:21:37:a5:74:8a:27:41:
         9e:1a:6a:28:47:e6:b8:02:36:ea:67:13:83:ae:78:71:8b:d7:
         54:96:32:fa:70:50:25:63:30:28:8d:75:20:e1:f7:fa:dd:3b:
         f2:92:c1:e4:c1:5c:f6:18:81:fb:9f:c2:64:39:67:6f:c7:3e:
         3c:b3:d8:7e:e8:60:f4:8b:d9:a6:a8:70:0a:42:1e:65:60:ed:
         c6:1f:65:18:d6:c5:55:e2:83:65:83:31:8d:e4:17:0a:58:0f:
         b6:42:1e:43:83:dc:85:d9:45:06:c1:a6:24:7c:17:48:8d:4e:
         da:49:1d:24:95:81:6f:59:45:37:0e:6d:08:4c:7b:e3:62:cc:
         2f:e3:c3:81:e9:a3:93:73:ff:3c:bb:6f:1e:3b:97:dd:2e:c4:
         88:3f:18:9d:df:99:23:b7:93:96:1d:45:0c:90:7f:33:99:52:
         d6:de:17:a2:e6:a3:27:be:20:39:dc:1a:f2:d7:2b:75:4a:ef:
         9d:3c:03:78:d0:de:27:be:d5:e2:f8:6d:eb:61:d9:95:4d:a5:
         05:78:3a:d3:17:49:d0:9f:6d:40:23:4c:0d:97:bb:bd:b8:08:
         69:a9:d2:9a:a5:f1:91:a1:43:d7:fb:c0:d0:ea:39:50:d0:e8:
         17:1e:31:54:b0:0f:2c:0e:02:9d:ec:98:f9:35:b3:a8:f2:db:
         e1:70:db:2f:f7:af:ac:fb:1a:5a:62:1c:64:42:75:08:d1:8d:
         ff:a9:a7:b7:6c:82:07:00:9a:9b:1e:ab:d6:40:d9:2e:47:90:
         36:c0:8e:ea:32:df:19:de:f7:fd:72:eb:41:6a:25:c3:6f:b8:
         4a:cd:03:73:0f:0e:ab:87:27:46:fc:36:44:6d:7a:38:02:cf:
         24:f8:85:c9:15:fb:ad:f0:89:66:68:48:38:94:2e:85:a6:f3:
         21:d2:32:42:93:27:49:b3:fd:d7:9e:0d:14:5d:72:c7:2c:e5:
         4c:13:0e:09:76:f9:d5:d7:af:dc:67:47:40:e2:a0:0e:19:95:
         88:1f:6a:84:2b:47:84:d4:8a:14:80:06:8a:4e:03:d7:96:4e:
         0f:ab:e9:2b:2f:ad:dc:69:c2:56:35:ad:92:f1:a7:6e:d6:41:
         c0:f9:9c:2e:35:2f:d9:e0:dc:f0:d4:93:b6:55:fa:ef:16:1c:
         a1:fb:88:6e:49:12:1d:90:fd:00:5b:5c:5f:3a:20:04:d5:15:
         5f:64:0b:e3:da:c7:14:5f
-----BEGIN CERTIFICATE-----
MIIFHTCCAwWgAwIBAgIBATANBgkqhkiG9w0BAQsFADCBhDELMAkGA1UEBhMCQ04x
EDAOBgNVBAgMB0JlaWppbmcxEDAOBgNVBAcMB0JlaWppbmcxEDAOBgNVBAoMB1dv
Y2xvdWQxDDAKBgNVBAsMA1ImRDEQMA4GA1UEAwwHVGVzdCBDQTEfMB0GCSqGSIb3
DQEJARYQdGVzdEBleGFtcGxlLmNvbTAeFw0yMTAzMDEwMjUxMDNaFw0yMzExMjYw
MjUxMDNaMFwxCzAJBgNVBAYTAkNOMRAwDgYDVQQIDAdCZWlqaW5nMRAwDgYDVQQH
DAdCZWlqaW5nMRAwDgYDVQQKDAdXb2Nsb3VkMRcwFQYDVQQDDA55aWdmcy50ZXN0
LmNvbTCCASIwDQYJKoZIhvcNAQEBBQADggEPADCCAQoCggEBANdAaxh2t/LgprTy
34sVJ3R+ZWZAVItSFy2An1Kjr27gIrsZROnT3l/LhFOHi/4tJ7bgdKRade7lNHqW
PEN28xmxEBTyh7Vj1sznaa54xsWQmg3enQChCEcg63xYNzW93vE8iqTZVbcWYhJO
p7tFnSvAAZNKa6xK+xGjyq1eJKcIY5c/Egq61TfozmvJ9jYiegVFyDjp2FyD8Vvf
5+4pHg8qFFrwMQAuJqcyDznVmOBjGz3M0kC31twIxk86cr8UoLs8zKLJcUfN9jDO
Dfd2gM068yfwxim/VthBK38WJ3l63yNVIMtf/3YJ74tNWi6RoR6tOM/JtNNzFbaO
PvUhMPMCAwEAAaOBwDCBvTAdBgNVHQ4EFgQU1jL4J0MvNVQf20xR5XvaqitwA6Qw
HwYDVR0jBBgwFoAUXzyDSCze3iqina7vi/h/xY8GlfQwCQYDVR0TBAIwADALBgNV
HQ8EBAMCBaAwNQYDVR0RBC4wLIIOeWlnZnMudGVzdC5jb22CCWxvY2FsaG9zdIIJ
MTI3LjAuMC4xhwR/AAABMCwGCWCGSAGG+EIBDQQfFh1PcGVuU1NMIEdlbmVyYXRl
ZCBDZXJ0aWZpY2F0ZTANBgkqhkiG9w0BAQsFAAOCAgEAJLLVpzqeoeiU15nQKdyP
uH8bSjnHBOcFcYdbaTYEXjtyuyU9dk3y0YjrrFXb5kwhN6V0iidBnhpqKEfmuAI2
6mcTg654cYvXVJYy+nBQJWMwKI11IOH3+t078pLB5MFc9hiB+5/CZDlnb8c+PLPY
fuhg9IvZpqhwCkIeZWDtxh9lGNbFVeKDZYMxjeQXClgPtkIeQ4PchdlFBsGmJHwX
SI1O2kkdJJWBb1lFNw5tCEx742LML+PDgemjk3P/PLtvHjuX3S7EiD8Ynd+ZI7eT
lh1FDJB/M5lS1t4XouajJ74gOdwa8tcrdUrvnTwDeNDeJ77V4vht62HZlU2lBXg6
0xdJ0J9tQCNMDZe7vbgIaanSmqXxkaFD1/vA0Oo5UNDoFx4xVLAPLA4CneyY+TWz
qPLb4XDbL/evrPsaWmIcZEJ1CNGN/6mnt2yCBwCamx6r1kDZLkeQNsCO6jLfGd73
/XLrQWolw2+4Ss0Dcw8Oq4cnRvw2RG16OALPJPiFyRX7rfCJZmhIOJQuhabzIdIy
QpMnSbP9154NFF1yxyzlTBMOCXb51dev3GdHQOKgDhmViB9qhCtHhNSKFIAGik4D
15ZOD6vpKy+t3GnCVjWtkvGnbtZBwPmcLjUv2eDc8NSTtlX67xYcofuIbkkSHZD9
AFtcXzogBNUVX2QL49rHFF8=
-----END CERTIFICATE-----
