Certificate:
    Data:
        Version: 3 (0x2)
        Serial Number: 1 (0x1)
    Signature Algorithm: sha256WithRSAEncryption
        Issuer: C=CN, ST=Beijing, L=Beijing, O=WoCloud, OU=R&D, CN=s3.test.com/emailAddress=test@example.com
        Validity
            Not Before: Jan 13 07:42:41 2021 GMT
            Not After : Oct 10 07:42:41 2023 GMT
        Subject: C=CN, ST=Beijing, L=Beijing, O=WoCloud, CN=s3.test.com
        Subject Public Key Info:
            Public Key Algorithm: rsaEncryption
                Public-Key: (2048 bit)
                Modulus:
                    00:dc:72:08:05:36:34:fa:23:23:c2:1b:f0:b1:86:
                    1a:9d:6f:66:24:f5:4b:6c:84:5c:88:fd:7c:7d:40:
                    79:bf:4e:e6:bc:5f:59:5c:69:6f:52:d5:e2:af:70:
                    9d:2c:31:27:5d:56:a7:24:2f:b9:4c:b8:3b:1f:b5:
                    74:d5:72:68:54:3f:aa:b1:97:f1:2d:69:a3:26:0a:
                    b2:cb:71:68:79:2d:8c:a0:95:6f:be:69:71:cf:fa:
                    37:4c:80:50:8d:b5:99:ec:4a:92:a2:20:27:21:51:
                    7a:10:e0:49:9d:d6:c6:3b:9a:78:39:03:eb:71:c5:
                    89:a9:8b:c9:6a:8b:fe:45:3f:69:0a:59:8a:78:01:
                    c1:8c:e1:7b:96:e1:16:b4:a9:67:67:13:59:7c:36:
                    7d:01:47:e5:6e:ab:02:8e:37:21:b7:e8:f1:67:5a:
                    e2:5e:f9:de:6f:7b:7d:dd:1b:22:90:44:84:a3:eb:
                    c3:13:9c:d9:b3:d7:71:52:d5:a0:90:7a:0e:b9:d6:
                    15:43:57:ea:b4:0e:6e:c5:c1:79:35:a2:4a:e8:cc:
                    a9:8d:d0:25:05:25:fc:ed:9a:c0:06:79:10:79:03:
                    e8:1a:00:59:a6:05:41:e3:da:ba:36:d2:35:95:76:
                    06:5f:9a:31:00:5e:69:6c:f6:e4:31:ca:b3:a4:40:
                    23:5b
                Exponent: 65537 (0x10001)
        X509v3 extensions:
            X509v3 Subject Key Identifier: 
                17:14:D6:05:9C:7F:41:F0:B3:EA:F1:BF:D8:7B:30:03:5B:D1:38:54
            X509v3 Authority Key Identifier: 
                keyid:71:E0:B8:1E:30:8F:EA:44:F8:A2:50:DD:4B:A3:85:F2:18:67:F6:A2

            X509v3 Basic Constraints: 
                CA:FALSE
            X509v3 Key Usage: 
                Digital Signature, Key Encipherment
            X509v3 Subject Alternative Name: 
                DNS:s3.test.com, DNS:localhost, DNS:127.0.0.1, IP Address:127.0.0.1, IP Address:0:0:0:0:0:0:0:1
            Netscape Comment: 
                OpenSSL Generated Certificate
    Signature Algorithm: sha256WithRSAEncryption
         7f:ec:5b:bb:59:98:55:da:5f:61:c5:68:83:dc:29:5c:67:99:
         83:11:d8:c1:5b:d2:bd:6c:22:c2:81:4a:3e:0d:4d:8b:cf:85:
         14:69:34:ae:fd:ad:d9:b9:65:e4:79:97:dd:c0:5c:da:7c:c2:
         7c:bb:0f:73:72:ad:d0:89:cb:cb:59:c2:a9:5e:aa:b1:7c:bb:
         56:a9:af:8a:c5:c5:bc:25:02:0a:f9:19:97:07:a4:26:57:4e:
         22:14:ac:2b:53:7b:33:f5:06:90:8c:b4:d5:be:4b:18:df:54:
         cb:28:5e:54:a3:52:7c:3c:c1:a4:a2:4e:4a:ab:6f:d8:f2:de:
         37:e8:3b:0f:4f:09:5c:8a:60:b5:23:ab:6a:31:5e:c4:a8:fd:
         37:f2:cb:85:8b:b2:61:15:b8:c8:d0:a7:00:fe:76:0a:93:c8:
         09:06:41:e6:5b:49:13:86:1f:cc:cd:2d:04:3b:5f:e6:70:4b:
         37:ac:f8:00:06:ea:9c:69:8c:a3:ee:a3:04:a1:26:d3:fe:a8:
         7f:6b:3c:8f:6a:76:1e:68:b2:3c:d2:df:2b:8a:9e:a5:ba:fd:
         6b:55:d3:6a:d8:9e:ce:f2:17:77:30:4d:75:da:9b:2d:04:ae:
         3e:58:00:03:71:6d:41:f7:ee:9a:bd:e2:f0:d1:9f:be:b2:40:
         87:99:37:1d:32:86:8f:01:44:51:6f:53:18:a5:ff:81:fa:ab:
         60:05:29:43:ca:88:c8:1b:6f:b2:de:40:0f:3f:1e:42:b1:0e:
         1a:d8:cf:db:8f:51:4f:f7:7b:2c:41:e6:e9:21:42:5c:a8:f0:
         83:b1:32:04:66:f2:92:1d:03:c3:fc:23:97:b8:97:cd:63:da:
         54:98:39:a7:af:4f:d8:64:2e:35:78:62:f0:9b:3f:fa:fc:f5:
         76:41:5e:5e:ff:bd:4d:b3:47:99:5a:af:d1:02:60:ee:e2:77:
         b4:c0:40:7d:7d:d3:ef:b9:78:76:4f:ff:fe:05:b2:89:cf:ba:
         1c:d8:ee:a1:7c:96:72:93:6f:0a:f1:ae:d5:42:e6:3a:7d:48:
         4e:2f:82:b2:53:62:28:b8:1b:9f:37:c2:aa:88:bd:1b:29:c8:
         5c:02:1d:36:57:d9:7c:67:e0:15:a6:f7:ce:01:c4:8e:ed:6b:
         39:02:6d:5e:5e:ec:19:9d:b1:17:8b:7e:8c:8e:04:47:98:08:
         c0:fc:85:45:12:5b:98:61:6c:fa:a9:c7:37:4c:36:27:c6:aa:
         43:23:2c:2b:d9:42:e1:5c:b2:a5:82:85:05:62:2c:b2:a6:d2:
         99:4c:ad:93:16:c4:c4:ab:1e:7b:12:52:bb:16:f2:27:8b:c4:
         53:9a:3e:ea:bc:30:9d:a7
-----BEGIN CERTIFICATE-----
MIIFLTCCAxWgAwIBAgIBATANBgkqhkiG9w0BAQsFADCBiDELMAkGA1UEBhMCQ04x
EDAOBgNVBAgMB0JlaWppbmcxEDAOBgNVBAcMB0JlaWppbmcxEDAOBgNVBAoMB1dv
Q2xvdWQxDDAKBgNVBAsMA1ImRDEUMBIGA1UEAwwLczMudGVzdC5jb20xHzAdBgkq
hkiG9w0BCQEWEHRlc3RAZXhhbXBsZS5jb20wHhcNMjEwMTEzMDc0MjQxWhcNMjMx
MDEwMDc0MjQxWjBZMQswCQYDVQQGEwJDTjEQMA4GA1UECAwHQmVpamluZzEQMA4G
A1UEBwwHQmVpamluZzEQMA4GA1UECgwHV29DbG91ZDEUMBIGA1UEAwwLczMudGVz
dC5jb20wggEiMA0GCSqGSIb3DQEBAQUAA4IBDwAwggEKAoIBAQDccggFNjT6IyPC
G/Cxhhqdb2Yk9UtshFyI/Xx9QHm/Tua8X1lcaW9S1eKvcJ0sMSddVqckL7lMuDsf
tXTVcmhUP6qxl/EtaaMmCrLLcWh5LYyglW++aXHP+jdMgFCNtZnsSpKiICchUXoQ
4Emd1sY7mng5A+txxYmpi8lqi/5FP2kKWYp4AcGM4XuW4Ra0qWdnE1l8Nn0BR+Vu
qwKONyG36PFnWuJe+d5ve33dGyKQRISj68MTnNmz13FS1aCQeg651hVDV+q0Dm7F
wXk1okrozKmN0CUFJfztmsAGeRB5A+gaAFmmBUHj2ro20jWVdgZfmjEAXmls9uQx
yrOkQCNbAgMBAAGjgc8wgcwwHQYDVR0OBBYEFBcU1gWcf0Hws+rxv9h7MANb0ThU
MB8GA1UdIwQYMBaAFHHguB4wj+pE+KJQ3UujhfIYZ/aiMAkGA1UdEwQCMAAwCwYD
VR0PBAQDAgWgMEQGA1UdEQQ9MDuCC3MzLnRlc3QuY29tgglsb2NhbGhvc3SCCTEy
Ny4wLjAuMYcEfwAAAYcQAAAAAAAAAAAAAAAAAAAAATAsBglghkgBhvhCAQ0EHxYd
T3BlblNTTCBHZW5lcmF0ZWQgQ2VydGlmaWNhdGUwDQYJKoZIhvcNAQELBQADggIB
AH/sW7tZmFXaX2HFaIPcKVxnmYMR2MFb0r1sIsKBSj4NTYvPhRRpNK79rdm5ZeR5
l93AXNp8wny7D3NyrdCJy8tZwqleqrF8u1apr4rFxbwlAgr5GZcHpCZXTiIUrCtT
ezP1BpCMtNW+SxjfVMsoXlSjUnw8waSiTkqrb9jy3jfoOw9PCVyKYLUjq2oxXsSo
/Tfyy4WLsmEVuMjQpwD+dgqTyAkGQeZbSROGH8zNLQQ7X+ZwSzes+AAG6pxpjKPu
owShJtP+qH9rPI9qdh5osjzS3yuKnqW6/WtV02rYns7yF3cwTXXamy0Erj5YAANx
bUH37pq94vDRn76yQIeZNx0yho8BRFFvUxil/4H6q2AFKUPKiMgbb7LeQA8/HkKx
DhrYz9uPUU/3eyxB5ukhQlyo8IOxMgRm8pIdA8P8I5e4l81j2lSYOaevT9hkLjV4
YvCbP/r89XZBXl7/vU2zR5lar9ECYO7id7TAQH190++5eHZP//4FsonPuhzY7qF8
lnKTbwrxrtVC5jp9SE4vgrJTYii4G583wqqIvRspyFwCHTZX2Xxn4BWm984BxI7t
azkCbV5e7BmdsReLfoyOBEeYCMD8hUUSW5hhbPqpxzdMNifGqkMjLCvZQuFcsqWC
hQViLLKm0plMrZMWxMSrHnsSUrsW8ieLxFOaPuq8MJ2n
-----END CERTIFICATE-----
